; Function Attrs: mustprogress uwtable
define hidden void @_ZNK18OpenImageIO_v2_6_03pvt17TextureSystemImpl8geterrorB5cxx11Eb(ptr noalias nonnull sret(%"class.std::__cxx11::basic_string") align 8 %agg.result, ptr noundef nonnull align 8 dereferenceable(184) %this, i1 noundef zeroext %clear) unnamed_addr #5 align 2 personality ptr @__gxx_personality_v0 {
entry:
  tail call void @_ZNSt7__cxx1112basic_stringIcSt11char_traitsIcESaIcEEC1Ev(ptr noundef nonnull align 8 dereferenceable(32) %agg.result) #30
  %m_errormessage = getelementptr inbounds i8, ptr %this, i64 160
  %call.i3 = invoke noundef ptr @_ZN5boost6detail12get_tss_dataEPKv(ptr noundef nonnull %m_errormessage)
          to label %invoke.cont unwind label %lpad

invoke.cont:                                      ; preds = %entry
  %tobool.not = icmp eq ptr %call.i3, null
  br i1 %tobool.not, label %nrvo.skipdtor, label %if.then

if.then:                                          ; preds = %invoke.cont
  %call3 = invoke noundef nonnull align 8 dereferenceable(32) ptr @_ZNSt7__cxx1112basic_stringIcSt11char_traitsIcESaIcEEaSERKS4_(ptr noundef nonnull align 8 dereferenceable(32) %agg.result, ptr noundef nonnull align 8 dereferenceable(32) %call.i3)
          to label %invoke.cont2 unwind label %lpad

invoke.cont2:                                     ; preds = %if.then
  br i1 %clear, label %if.then5, label %nrvo.skipdtor

if.then5:                                         ; preds = %invoke.cont2
  tail call void @_ZNSt7__cxx1112basic_stringIcSt11char_traitsIcESaIcEE5clearEv(ptr noundef nonnull align 8 dereferenceable(32) %call.i3) #30
  br label %nrvo.skipdtor

lpad:                                             ; preds = %entry, %if.then
  %0 = landingpad { ptr, i32 }
          cleanup
  tail call void @_ZNSt7__cxx1112basic_stringIcSt11char_traitsIcESaIcEED1Ev(ptr noundef nonnull align 8 dereferenceable(32) %agg.result) #30
  resume { ptr, i32 } %0

nrvo.skipdtor:                                    ; preds = %invoke.cont, %if.then5, %invoke.cont2
  ret void
}